#include <math.h>
#include <stdio.h>
#include <stdlib.h>
#include <string.h>
#include <iostream>
using namespace std;

int main()
{
	char str[256], substr[256], rep[256];
	int i, j, flag = 1, flag1 = 0;
    cin >> str;
	cin >> substr;
	cin >> rep;
	int nlen = strlen(str);
	int slen = strlen(substr);
	int rlen = strlen(rep);
	if (slen != rlen) 
	{cout << "hehe" << endl;}
    for (i = 0; i < nlen; i++)
	{
		for (j = 0; j < slen; j++)
		{
            if (substr[j] != str[i + j])
			{	flag = 0; break;}
			else 
			{
				flag = 1;
			}
		}
		if (flag)
		{
			for (int k = 0; k < slen; k++)
			{
				str[i + k] = rep[k];
			}
			flag1 = 1;
		}
		if (flag1)
		{break;}
	}
	cout << str << '\n';
	return 0;
}